target datalayout = "e-m:e-p270:32:32-p271:32:32-p272:64:64-i64:64-f80:128-n8:16:32:64-S128"
target triple = "x86_64-pc-linux-gnu"

@.str = private unnamed_addr constant [3 x i8] c"%d\00", align 1
@.str.1 = private unnamed_addr constant [9 x i8] c"%f %f %f\00", align 1
@.str.2 = private unnamed_addr constant [40 x i8] c"(%.0f,%.0f,%.0f)-(%.0f,%.0f,%.0f)=%.2f\0A\00", align 1

; Function Attrs: noinline nounwind uwtable
define dso_local float @juli(float %0, float %1, float %2, float %3, float %4, float %5) #0 {
  %7 = alloca float, align 4
  %8 = alloca float, align 4
  %9 = alloca float, align 4
  %10 = alloca float, align 4
  %11 = alloca float, align 4
  %12 = alloca float, align 4
  store float %0, float* %7, align 4
  store float %1, float* %8, align 4
  store float %2, float* %9, align 4
  store float %3, float* %10, align 4
  store float %4, float* %11, align 4
  store float %5, float* %12, align 4
  %13 = load float, float* %7, align 4
  %14 = load float, float* %10, align 4
  %15 = fsub float %13, %14
  %16 = load float, float* %7, align 4
  %17 = load float, float* %10, align 4
  %18 = fsub float %16, %17
  %19 = fmul float %15, %18
  %20 = load float, float* %8, align 4
  %21 = load float, float* %11, align 4
  %22 = fsub float %20, %21
  %23 = load float, float* %8, align 4
  %24 = load float, float* %11, align 4
  %25 = fsub float %23, %24
  %26 = fmul float %22, %25
  %27 = fadd float %19, %26
  %28 = load float, float* %9, align 4
  %29 = load float, float* %12, align 4
  %30 = fsub float %28, %29
  %31 = load float, float* %9, align 4
  %32 = load float, float* %12, align 4
  %33 = fsub float %31, %32
  %34 = fmul float %30, %33
  %35 = fadd float %27, %34
  %36 = fpext float %35 to double
  %37 = call double @sqrt(double %36) #3
  %38 = fptrunc double %37 to float
  ret float %38
}

; Function Attrs: noinline nounwind uwtable
define dso_local i32 @main() #0 {
  %1 = alloca i32, align 4
  %2 = alloca i32, align 4
  %3 = alloca i32, align 4
  %4 = alloca i32, align 4
  %5 = alloca i32, align 4
  %6 = alloca i32, align 4
  %7 = alloca [10 x float], align 16
  %8 = alloca [10 x float], align 16
  %9 = alloca [10 x float], align 16
  %10 = alloca [50 x float], align 16
  %11 = alloca float, align 4
  %12 = alloca [50 x i32], align 16
  %13 = alloca [50 x i32], align 16
  store i32 0, i32* %1, align 4
  store i32 0, i32* %3, align 4
  %14 = call i32 (i8*, ...) @__isoc99_scanf(i8* getelementptr inbounds ([3 x i8], [3 x i8]* @.str, i64 0, i64 0), i32* %2)
  store i32 0, i32* %4, align 4
  br label %15

15:                                               ; preds = %30, %0
  %16 = load i32, i32* %4, align 4
  %17 = load i32, i32* %2, align 4
  %18 = icmp slt i32 %16, %17
  br i1 %18, label %19, label %33

19:                                               ; preds = %15
  %20 = load i32, i32* %4, align 4
  %21 = sext i32 %20 to i64
  %22 = getelementptr inbounds [10 x float], [10 x float]* %7, i64 0, i64 %21
  %23 = load i32, i32* %4, align 4
  %24 = sext i32 %23 to i64
  %25 = getelementptr inbounds [10 x float], [10 x float]* %8, i64 0, i64 %24
  %26 = load i32, i32* %4, align 4
  %27 = sext i32 %26 to i64
  %28 = getelementptr inbounds [10 x float], [10 x float]* %9, i64 0, i64 %27
  %29 = call i32 (i8*, ...) @__isoc99_scanf(i8* getelementptr inbounds ([9 x i8], [9 x i8]* @.str.1, i64 0, i64 0), float* %22, float* %25, float* %28)
  br label %30

30:                                               ; preds = %19
  %31 = load i32, i32* %4, align 4
  %32 = add nsw i32 %31, 1
  store i32 %32, i32* %4, align 4
  br label %15

33:                                               ; preds = %15
  store i32 0, i32* %4, align 4
  br label %34

34:                                               ; preds = %89, %33
  %35 = load i32, i32* %4, align 4
  %36 = load i32, i32* %2, align 4
  %37 = sub nsw i32 %36, 1
  %38 = icmp slt i32 %35, %37
  br i1 %38, label %39, label %92

39:                                               ; preds = %34
  %40 = load i32, i32* %4, align 4
  %41 = add nsw i32 %40, 1
  store i32 %41, i32* %5, align 4
  br label %42

42:                                               ; preds = %85, %39
  %43 = load i32, i32* %5, align 4
  %44 = load i32, i32* %2, align 4
  %45 = icmp slt i32 %43, %44
  br i1 %45, label %46, label %88

46:                                               ; preds = %42
  %47 = load i32, i32* %4, align 4
  %48 = sext i32 %47 to i64
  %49 = getelementptr inbounds [10 x float], [10 x float]* %7, i64 0, i64 %48
  %50 = load float, float* %49, align 4
  %51 = load i32, i32* %4, align 4
  %52 = sext i32 %51 to i64
  %53 = getelementptr inbounds [10 x float], [10 x float]* %8, i64 0, i64 %52
  %54 = load float, float* %53, align 4
  %55 = load i32, i32* %4, align 4
  %56 = sext i32 %55 to i64
  %57 = getelementptr inbounds [10 x float], [10 x float]* %9, i64 0, i64 %56
  %58 = load float, float* %57, align 4
  %59 = load i32, i32* %5, align 4
  %60 = sext i32 %59 to i64
  %61 = getelementptr inbounds [10 x float], [10 x float]* %7, i64 0, i64 %60
  %62 = load float, float* %61, align 4
  %63 = load i32, i32* %5, align 4
  %64 = sext i32 %63 to i64
  %65 = getelementptr inbounds [10 x float], [10 x float]* %8, i64 0, i64 %64
  %66 = load float, float* %65, align 4
  %67 = load i32, i32* %5, align 4
  %68 = sext i32 %67 to i64
  %69 = getelementptr inbounds [10 x float], [10 x float]* %9, i64 0, i64 %68
  %70 = load float, float* %69, align 4
  %71 = call float @juli(float %50, float %54, float %58, float %62, float %66, float %70)
  %72 = load i32, i32* %3, align 4
  %73 = sext i32 %72 to i64
  %74 = getelementptr inbounds [50 x float], [50 x float]* %10, i64 0, i64 %73
  store float %71, float* %74, align 4
  %75 = load i32, i32* %4, align 4
  %76 = load i32, i32* %3, align 4
  %77 = sext i32 %76 to i64
  %78 = getelementptr inbounds [50 x i32], [50 x i32]* %12, i64 0, i64 %77
  store i32 %75, i32* %78, align 4
  %79 = load i32, i32* %5, align 4
  %80 = load i32, i32* %3, align 4
  %81 = sext i32 %80 to i64
  %82 = getelementptr inbounds [50 x i32], [50 x i32]* %13, i64 0, i64 %81
  store i32 %79, i32* %82, align 4
  %83 = load i32, i32* %3, align 4
  %84 = add nsw i32 %83, 1
  store i32 %84, i32* %3, align 4
  br label %85

85:                                               ; preds = %46
  %86 = load i32, i32* %5, align 4
  %87 = add nsw i32 %86, 1
  store i32 %87, i32* %5, align 4
  br label %42

88:                                               ; preds = %42
  br label %89

89:                                               ; preds = %88
  %90 = load i32, i32* %4, align 4
  %91 = add nsw i32 %90, 1
  store i32 %91, i32* %4, align 4
  br label %34

92:                                               ; preds = %34
  store i32 0, i32* %4, align 4
  br label %93

93:                                               ; preds = %172, %92
  %94 = load i32, i32* %4, align 4
  %95 = load i32, i32* %3, align 4
  %96 = icmp slt i32 %94, %95
  br i1 %96, label %97, label %175

97:                                               ; preds = %93
  %98 = load i32, i32* %3, align 4
  %99 = sub nsw i32 %98, 1
  store i32 %99, i32* %5, align 4
  br label %100

100:                                              ; preds = %168, %97
  %101 = load i32, i32* %5, align 4
  %102 = load i32, i32* %4, align 4
  %103 = icmp sgt i32 %101, %102
  br i1 %103, label %104, label %171

104:                                              ; preds = %100
  %105 = load i32, i32* %5, align 4
  %106 = sext i32 %105 to i64
  %107 = getelementptr inbounds [50 x float], [50 x float]* %10, i64 0, i64 %106
  %108 = load float, float* %107, align 4
  %109 = load i32, i32* %5, align 4
  %110 = sub nsw i32 %109, 1
  %111 = sext i32 %110 to i64
  %112 = getelementptr inbounds [50 x float], [50 x float]* %10, i64 0, i64 %111
  %113 = load float, float* %112, align 4
  %114 = fcmp ogt float %108, %113
  br i1 %114, label %115, label %167

115:                                              ; preds = %104
  %116 = load i32, i32* %5, align 4
  %117 = sext i32 %116 to i64
  %118 = getelementptr inbounds [50 x float], [50 x float]* %10, i64 0, i64 %117
  %119 = load float, float* %118, align 4
  store float %119, float* %11, align 4
  %120 = load i32, i32* %5, align 4
  %121 = sub nsw i32 %120, 1
  %122 = sext i32 %121 to i64
  %123 = getelementptr inbounds [50 x float], [50 x float]* %10, i64 0, i64 %122
  %124 = load float, float* %123, align 4
  %125 = load i32, i32* %5, align 4
  %126 = sext i32 %125 to i64
  %127 = getelementptr inbounds [50 x float], [50 x float]* %10, i64 0, i64 %126
  store float %124, float* %127, align 4
  %128 = load float, float* %11, align 4
  %129 = load i32, i32* %5, align 4
  %130 = sub nsw i32 %129, 1
  %131 = sext i32 %130 to i64
  %132 = getelementptr inbounds [50 x float], [50 x float]* %10, i64 0, i64 %131
  store float %128, float* %132, align 4
  %133 = load i32, i32* %5, align 4
  %134 = sext i32 %133 to i64
  %135 = getelementptr inbounds [50 x i32], [50 x i32]* %12, i64 0, i64 %134
  %136 = load i32, i32* %135, align 4
  store i32 %136, i32* %6, align 4
  %137 = load i32, i32* %5, align 4
  %138 = sub nsw i32 %137, 1
  %139 = sext i32 %138 to i64
  %140 = getelementptr inbounds [50 x i32], [50 x i32]* %12, i64 0, i64 %139
  %141 = load i32, i32* %140, align 4
  %142 = load i32, i32* %5, align 4
  %143 = sext i32 %142 to i64
  %144 = getelementptr inbounds [50 x i32], [50 x i32]* %12, i64 0, i64 %143
  store i32 %141, i32* %144, align 4
  %145 = load i32, i32* %6, align 4
  %146 = load i32, i32* %5, align 4
  %147 = sub nsw i32 %146, 1
  %148 = sext i32 %147 to i64
  %149 = getelementptr inbounds [50 x i32], [50 x i32]* %12, i64 0, i64 %148
  store i32 %145, i32* %149, align 4
  %150 = load i32, i32* %5, align 4
  %151 = sext i32 %150 to i64
  %152 = getelementptr inbounds [50 x i32], [50 x i32]* %13, i64 0, i64 %151
  %153 = load i32, i32* %152, align 4
  store i32 %153, i32* %6, align 4
  %154 = load i32, i32* %5, align 4
  %155 = sub nsw i32 %154, 1
  %156 = sext i32 %155 to i64
  %157 = getelementptr inbounds [50 x i32], [50 x i32]* %13, i64 0, i64 %156
  %158 = load i32, i32* %157, align 4
  %159 = load i32, i32* %5, align 4
  %160 = sext i32 %159 to i64
  %161 = getelementptr inbounds [50 x i32], [50 x i32]* %13, i64 0, i64 %160
  store i32 %158, i32* %161, align 4
  %162 = load i32, i32* %6, align 4
  %163 = load i32, i32* %5, align 4
  %164 = sub nsw i32 %163, 1
  %165 = sext i32 %164 to i64
  %166 = getelementptr inbounds [50 x i32], [50 x i32]* %13, i64 0, i64 %165
  store i32 %162, i32* %166, align 4
  br label %167

167:                                              ; preds = %115, %104
  br label %168

168:                                              ; preds = %167
  %169 = load i32, i32* %5, align 4
  %170 = add nsw i32 %169, -1
  store i32 %170, i32* %5, align 4
  br label %100

171:                                              ; preds = %100
  br label %172

172:                                              ; preds = %171
  %173 = load i32, i32* %4, align 4
  %174 = add nsw i32 %173, 1
  store i32 %174, i32* %4, align 4
  br label %93

175:                                              ; preds = %93
  store i32 0, i32* %4, align 4
  br label %176

176:                                              ; preds = %235, %175
  %177 = load i32, i32* %4, align 4
  %178 = load i32, i32* %3, align 4
  %179 = icmp slt i32 %177, %178
  br i1 %179, label %180, label %238

180:                                              ; preds = %176
  %181 = load i32, i32* %4, align 4
  %182 = sext i32 %181 to i64
  %183 = getelementptr inbounds [50 x i32], [50 x i32]* %12, i64 0, i64 %182
  %184 = load i32, i32* %183, align 4
  %185 = sext i32 %184 to i64
  %186 = getelementptr inbounds [10 x float], [10 x float]* %7, i64 0, i64 %185
  %187 = load float, float* %186, align 4
  %188 = fpext float %187 to double
  %189 = load i32, i32* %4, align 4
  %190 = sext i32 %189 to i64
  %191 = getelementptr inbounds [50 x i32], [50 x i32]* %12, i64 0, i64 %190
  %192 = load i32, i32* %191, align 4
  %193 = sext i32 %192 to i64
  %194 = getelementptr inbounds [10 x float], [10 x float]* %8, i64 0, i64 %193
  %195 = load float, float* %194, align 4
  %196 = fpext float %195 to double
  %197 = load i32, i32* %4, align 4
  %198 = sext i32 %197 to i64
  %199 = getelementptr inbounds [50 x i32], [50 x i32]* %12, i64 0, i64 %198
  %200 = load i32, i32* %199, align 4
  %201 = sext i32 %200 to i64
  %202 = getelementptr inbounds [10 x float], [10 x float]* %9, i64 0, i64 %201
  %203 = load float, float* %202, align 4
  %204 = fpext float %203 to double
  %205 = load i32, i32* %4, align 4
  %206 = sext i32 %205 to i64
  %207 = getelementptr inbounds [50 x i32], [50 x i32]* %13, i64 0, i64 %206
  %208 = load i32, i32* %207, align 4
  %209 = sext i32 %208 to i64
  %210 = getelementptr inbounds [10 x float], [10 x float]* %7, i64 0, i64 %209
  %211 = load float, float* %210, align 4
  %212 = fpext float %211 to double
  %213 = load i32, i32* %4, align 4
  %214 = sext i32 %213 to i64
  %215 = getelementptr inbounds [50 x i32], [50 x i32]* %13, i64 0, i64 %214
  %216 = load i32, i32* %215, align 4
  %217 = sext i32 %216 to i64
  %218 = getelementptr inbounds [10 x float], [10 x float]* %8, i64 0, i64 %217
  %219 = load float, float* %218, align 4
  %220 = fpext float %219 to double
  %221 = load i32, i32* %4, align 4
  %222 = sext i32 %221 to i64
  %223 = getelementptr inbounds [50 x i32], [50 x i32]* %13, i64 0, i64 %222
  %224 = load i32, i32* %223, align 4
  %225 = sext i32 %224 to i64
  %226 = getelementptr inbounds [10 x float], [10 x float]* %9, i64 0, i64 %225
  %227 = load float, float* %226, align 4
  %228 = fpext float %227 to double
  %229 = load i32, i32* %4, align 4
  %230 = sext i32 %229 to i64
  %231 = getelementptr inbounds [50 x float], [50 x float]* %10, i64 0, i64 %230
  %232 = load float, float* %231, align 4
  %233 = fpext float %232 to double
  %234 = call i32 (i8*, ...) @printf(i8* getelementptr inbounds ([40 x i8], [40 x i8]* @.str.2, i64 0, i64 0), double %188, double %196, double %204, double %212, double %220, double %228, double %233)
  br label %235

235:                                              ; preds = %180
  %236 = load i32, i32* %4, align 4
  %237 = add nsw i32 %236, 1
  store i32 %237, i32* %4, align 4
  br label %176

238:                                              ; preds = %176
  ret i32 0
}